; Function Attrs: mustprogress nofree norecurse nosync nounwind willreturn memory(read, inaccessiblemem: none) uwtable
define hidden noundef zeroext i1 @_ZNK7datalog14bound_relation5is_ltEjj(ptr noundef nonnull readonly align 8 captures(none) dereferenceable(136) %0, i32 noundef %1, i32 noundef %2) local_unnamed_addr #6 align 2 {
  %4 = getelementptr inbounds nuw i8, ptr %0, i64 48
  %5 = load ptr, ptr %4, align 8, !tbaa !174
  %6 = getelementptr inbounds nuw i8, ptr %0, i64 120
  %7 = load ptr, ptr %6, align 8, !tbaa !194
  %8 = getelementptr inbounds nuw i8, ptr %7, i64 16
  %9 = load ptr, ptr %8, align 8, !tbaa !61
  br label %10

10:                                               ; preds = %10, %3
  %.08.i.i.i = phi i32 [ %1, %3 ], [ %13, %10 ]
  %11 = zext i32 %.08.i.i.i to i64
  %12 = getelementptr inbounds nuw i32, ptr %9, i64 %11
  %13 = load i32, ptr %12, align 4, !tbaa !40
  %.not.i.i.i = icmp eq i32 %13, %.08.i.i.i
  br i1 %.not.i.i.i, label %_ZNK7datalog15vector_relationINS_9uint_set2ENS_21bound_relation_helperEEixEj.exit, label %10

_ZNK7datalog15vector_relationINS_9uint_set2ENS_21bound_relation_helperEEixEj.exit: ; preds = %10
  %14 = load ptr, ptr %5, align 8, !tbaa !171
  br label %15

15:                                               ; preds = %15, %_ZNK7datalog15vector_relationINS_9uint_set2ENS_21bound_relation_helperEEixEj.exit
  %.08.i.i = phi i32 [ %2, %_ZNK7datalog15vector_relationINS_9uint_set2ENS_21bound_relation_helperEEixEj.exit ], [ %18, %15 ]
  %16 = zext i32 %.08.i.i to i64
  %17 = getelementptr inbounds nuw i32, ptr %9, i64 %16
  %18 = load i32, ptr %17, align 4, !tbaa !40
  %.not.i.i = icmp eq i32 %18, %.08.i.i
  br i1 %.not.i.i, label %_ZNK7datalog15vector_relationINS_9uint_set2ENS_21bound_relation_helperEE4findEj.exit, label %15

_ZNK7datalog15vector_relationINS_9uint_set2ENS_21bound_relation_helperEE4findEj.exit: ; preds = %15
  %19 = getelementptr inbounds nuw %"struct.datalog::uint_set2", ptr %14, i64 %11
  %20 = lshr i32 %.08.i.i, 5
  %21 = load ptr, ptr %19, align 8, !tbaa !61
  %22 = icmp eq ptr %21, null
  br i1 %22, label %_ZNK8uint_set8containsEj.exit, label %_ZNK6vectorIjLb0EjE4sizeEv.exit.i

_ZNK6vectorIjLb0EjE4sizeEv.exit.i:                ; preds = %_ZNK7datalog15vector_relationINS_9uint_set2ENS_21bound_relation_helperEE4findEj.exit
  %23 = getelementptr inbounds i8, ptr %21, i64 -4
  %24 = load i32, ptr %23, align 4, !tbaa !40
  %25 = icmp ult i32 %20, %24
  br i1 %25, label %26, label %_ZNK8uint_set8containsEj.exit

26:                                               ; preds = %_ZNK6vectorIjLb0EjE4sizeEv.exit.i
  %27 = zext nneg i32 %20 to i64
  %28 = getelementptr inbounds nuw i32, ptr %21, i64 %27
  %29 = load i32, ptr %28, align 4, !tbaa !40
  %30 = and i32 %.08.i.i, 31
  %31 = shl nuw i32 1, %30
  %32 = and i32 %29, %31
  %33 = icmp ne i32 %32, 0
  br label %_ZNK8uint_set8containsEj.exit

_ZNK8uint_set8containsEj.exit:                    ; preds = %_ZNK7datalog15vector_relationINS_9uint_set2ENS_21bound_relation_helperEE4findEj.exit, %_ZNK6vectorIjLb0EjE4sizeEv.exit.i, %26
  %34 = phi i1 [ false, %_ZNK6vectorIjLb0EjE4sizeEv.exit.i ], [ %33, %26 ], [ false, %_ZNK7datalog15vector_relationINS_9uint_set2ENS_21bound_relation_helperEE4findEj.exit ]
  ret i1 %34
}